target datalayout = "e-m:e-p270:32:32-p271:32:32-p272:64:64-i64:64-i128:128-f80:128-n8:16:32:64-S128"
target triple = "x86_64-pc-linux-gnu"

%struct.CLAMFI = type { ptr, ptr, ptr, ptr, ptr, i32, i32, i32, i32, i32, i32, i32, i32, i32, i32, i32, [1424 x i8] }

@rejectfmt = internal global ptr null, align 8
@.str.77 = private unnamed_addr constant [4 x i8] c"550\00", align 1
@.str.78 = private unnamed_addr constant [6 x i8] c"5.7.1\00", align 1

; Function Attrs: nounwind uwtable
define internal i32 @action_reject_msg(ptr noundef %0) #0 {
  %2 = alloca i32, align 4
  %3 = alloca ptr, align 8
  %4 = alloca ptr, align 8
  %5 = alloca [1024 x i8], align 16
  store ptr %0, ptr %3, align 8
  %6 = load ptr, ptr @rejectfmt, align 8
  %7 = icmp ne ptr %6, null
  br i1 %7, label %8, label %12

8:                                                ; preds = %1
  %9 = load ptr, ptr %3, align 8
  %10 = call ptr @smfi_getpriv(ptr noundef %9)
  store ptr %10, ptr %4, align 8
  %11 = icmp ne ptr %10, null
  br i1 %11, label %13, label %12

12:                                               ; preds = %8, %1
  store i32 1, ptr %2, align 4
  br label %24

13:                                               ; preds = %8
  %14 = getelementptr inbounds [1024 x i8], ptr %5, i64 0, i64 0
  %15 = load ptr, ptr @rejectfmt, align 8
  %16 = load ptr, ptr %4, align 8
  %17 = getelementptr inbounds %struct.CLAMFI, ptr %16, i32 0, i32 0
  %18 = load ptr, ptr %17, align 8
  %19 = call i32 (ptr, i64, ptr, ...) @snprintf(ptr noundef %14, i64 noundef 1024, ptr noundef %15, ptr noundef %18) #9
  %20 = getelementptr inbounds [1024 x i8], ptr %5, i64 0, i64 1023
  store i8 0, ptr %20, align 1
  %21 = load ptr, ptr %3, align 8
  %22 = getelementptr inbounds [1024 x i8], ptr %5, i64 0, i64 0
  %23 = call i32 @smfi_setreply(ptr noundef %21, ptr noundef @.str.77, ptr noundef @.str.78, ptr noundef %22)
  store i32 1, ptr %2, align 4
  br label %24

24:                                               ; preds = %13, %12
  %25 = load i32, ptr %2, align 4
  ret i32 %25
}