; Function Attrs: nounwind uwtable
define internal noundef i32 @action_reject_msg(ptr noundef %0) #0 {
  %2 = alloca [1024 x i8], align 16
  %3 = load ptr, ptr @rejectfmt, align 8
  %.not = icmp eq ptr %3, null
  br i1 %.not, label %12, label %4

4:                                                ; preds = %1
  %5 = tail call ptr @smfi_getpriv(ptr noundef %0) #17
  %.not3 = icmp eq ptr %5, null
  br i1 %.not3, label %12, label %6

6:                                                ; preds = %4
  %7 = load ptr, ptr @rejectfmt, align 8
  %8 = load ptr, ptr %5, align 8
  %9 = call i32 (ptr, i64, ptr, ...) @snprintf(ptr noundef nonnull dereferenceable(1) %2, i64 noundef 1024, ptr noundef %7, ptr noundef %8) #17
  %10 = getelementptr inbounds i8, ptr %2, i64 1023
  store i8 0, ptr %10, align 1
  %11 = call i32 @smfi_setreply(ptr noundef %0, ptr noundef nonnull @.str.77, ptr noundef nonnull @.str.78, ptr noundef nonnull %2) #17
  br label %12

12:                                               ; preds = %1, %4, %6
  ret i32 1
}